ccopy_reg
_reconstructor
p0
(csrc.data
ListeningDict
p1
c__builtin__
dict
p2
(dp3
Vusers
p4
g0
(g1
g2
(dp5
L35746842521L
g0
(g1
g2
(dp6
Vname_first
p7
Vfirst_name1
p8
sVname_last
p9
Vlast_name1
p10
sVemail
p11
Vexample1@hotmail.com
p12
sVpassword
p13
Vpassword1
p14
sVhandle_str
p15
Vfirst_name1last_name
p16
sVpermission_id
p17
I1
stp18
Rp19
sL11753764853L
g0
(g1
g2
(dp20
g7
Vfirst_name2
p21
sg9
Vlast_name2
p22
sg11
Vexample2@hotmail.com
p23
sg13
Vpassword2
p24
sg15
Vfirst_name2last_name
p25
sg17
I2
stp26
Rp27
stp28
Rp29
sVchannels
p30
g0
(g1
g2
(dp31
L14723573315L
g0
(g1
g2
(dp32
Vname
p33
Vchannel1
p34
sVis_public
p35
I01
sVowner_members
p36
(lp37
Vauth_user_id1
p38
asVall_members
p39
(lp40
g38
aVauth_user_id2
p41
asVmessages
p42
(lp43
(dp44
Vmessage_id
p45
L4561328123L
sVu_id
p46
L35746842521L
sVmessage
p47
VHello World1
p48
sVtime_created
p49
I123416589
sa(dp50
g45
L61510648893L
sg46
L11753764853L
sg47
VHello World2
p51
sg49
I123456789
sastp52
Rp53
sL31627643273L
g0
(g1
g2
(dp54
g33
Vchannel2
p55
sg35
I01
sg36
(lp56
I123456789
asg39
(lp57
I123456789
aL12389473129847L
asg42
(lp58
(dp59
g45
L12354122383L
sg46
L35746842521L
sg47
g48
sg49
L45132806512L
sa(dp60
g45
L123156231064L
sg46
L11753764853L
sg47
g51
sg49
L68741450315603L
sastp61
Rp62
stp63
Rp64
stp65
Rp66
.