ccopy_reg
_reconstructor
p0
(csrc.data
ListeningDict
p1
c__builtin__
dict
p2
(dp3
Vusers
p4
g0
(g1
g2
(dp5
L35746842521L
g0
(g1
g2
(dp6
Vname_first
p7
Vfirst_name1
p8
sVname_last
p9
Vlast_name1
p10
sVemail
p11
Vexample1@hotmail.com
p12
sVpassword
p13
Vpassword1
p14
sVhandle_str
p15
Vfirst_name1last_name
p16
sVpermission_id
p17
I1
stp18
Rp19
sL11753764853L
g0
(g1
g2
(dp20
g7
Vfirst_name2
p21
sg9
Vlast_name2
p22
sg11
Vexample2@hotmail.com
p23
sg13
Vpassword2
p24
sg15
Vfirst_name2last_name
p25
sg17
I2
stp26
Rp27
sL291701302382924300065144022126319711977L
g0
(g1
g2
(dp28
g7
Vwinston
p29
sg9
Vlin
p30
sg11
Vq160590076@gmail.com
p31
sg13
V11abf0dd9dce18f9616856cb9b03f2a236966a0b78bc4ad3fe0983b5fa4023f4
p32
sg15
Vwinstonlin
p33
sg17
I2
stp34
Rp35
stp36
Rp37
sVchannels
p38
g0
(g1
g2
(dp39
L14723573315L
g0
(g1
g2
(dp40
Vname
p41
Vchannel1
p42
sVis_public
p43
I01
sVowner_members
p44
(lp45
Vauth_user_id1
p46
asVall_members
p47
(lp48
g46
aVauth_user_id2
p49
asVmessages
p50
(lp51
(dp52
Vmessage_id
p53
L4561328123L
sVu_id
p54
L35746842521L
sVmessage
p55
VHello World1
p56
sVtime_created
p57
I123416589
sa(dp58
g53
L61510648893L
sg54
L11753764853L
sg55
VHello World2
p59
sg57
I123456789
sastp60
Rp61
sL31627643273L
g0
(g1
g2
(dp62
g41
Vchannel2
p63
sg43
I01
sg44
(lp64
I123456789
asg47
(lp65
I123456789
aL12389473129847L
asg50
(lp66
(dp67
g53
L12354122383L
sg54
L35746842521L
sg55
g56
sg57
L45132806512L
sa(dp68
g53
L123156231064L
sg54
L11753764853L
sg55
g59
sg57
L68741450315603L
sastp69
Rp70
stp71
Rp72
stp73
Rp74
.